; Function Attrs: mustprogress nofree nounwind willreturn memory(read) uwtable
define dso_local noundef zeroext i1 @_ZNK4llvm10Dependence7isInputEv(ptr nocapture noundef nonnull readonly align 8 dereferenceable(40) %0) local_unnamed_addr #5 align 2 {
  %2 = getelementptr inbounds nuw i8, ptr %0, i64 8
  %3 = load ptr, ptr %2, align 8
  %4 = tail call noundef zeroext i1 @_ZNK4llvm11Instruction17mayReadFromMemoryEv(ptr noundef nonnull align 8 dereferenceable(72) %3) #27
  br i1 %4, label %5, label %9

5:                                                ; preds = %1
  %6 = getelementptr inbounds nuw i8, ptr %0, i64 16
  %7 = load ptr, ptr %6, align 8
  %8 = tail call noundef zeroext i1 @_ZNK4llvm11Instruction17mayReadFromMemoryEv(ptr noundef nonnull align 8 dereferenceable(72) %7) #27
  br label %9

9:                                                ; preds = %5, %1
  %10 = phi i1 [ false, %1 ], [ %8, %5 ]
  ret i1 %10
}